target datalayout = "e-m:e-p270:32:32-p271:32:32-p272:64:64-i64:64-i128:128-f80:128-n8:16:32:64-S128"
target triple = "x86_64-pc-linux-gnu"

%"class.igl::opengl::ViewerData" = type { %"class.Eigen::Matrix.3", %"class.Eigen::Matrix.12", %"class.Eigen::Matrix.3", %"class.Eigen::Matrix.3", %"class.Eigen::Matrix.3", %"class.Eigen::Matrix.3", %"class.Eigen::Matrix.3", %"class.Eigen::Matrix.3", %"class.Eigen::Matrix.3", %"class.Eigen::Matrix.3", %"class.Eigen::Matrix.3", %"class.Eigen::Matrix.12", %"class.Eigen::Matrix.21", %"class.Eigen::Matrix.21", %"class.Eigen::Matrix.21", %"class.Eigen::Matrix.21", %"class.Eigen::Matrix.3", %"class.Eigen::Matrix.3", %"class.Eigen::Matrix.3", %"class.Eigen::Matrix.3", %"class.Eigen::Matrix.3", %"class.std::vector", %"class.std::vector", %"class.std::vector", i32, i8, i8, i8, i32, i32, i32, i32, i32, i32, i32, i32, i32, i32, float, float, float, %"class.Eigen::Matrix.30", %"class.Eigen::Matrix.30", float, i32, [4 x i8], %"class.igl::opengl::MeshGL" }
%"class.Eigen::Matrix.12" = type { %"class.Eigen::PlainObjectBase.13" }
%"class.Eigen::PlainObjectBase.13" = type { %"class.Eigen::DenseStorage.20" }
%"class.Eigen::DenseStorage.20" = type { ptr, i64, i64 }
%"class.Eigen::Matrix.21" = type { %"class.Eigen::PlainObjectBase.22" }
%"class.Eigen::PlainObjectBase.22" = type { %"class.Eigen::DenseStorage.29" }
%"class.Eigen::DenseStorage.29" = type { ptr, i64, i64 }
%"class.Eigen::Matrix.3" = type { %"class.Eigen::PlainObjectBase.4" }
%"class.Eigen::PlainObjectBase.4" = type { %"class.Eigen::DenseStorage.11" }
%"class.Eigen::DenseStorage.11" = type { ptr, i64, i64 }
%"class.std::vector" = type { %"struct.std::_Vector_base" }
%"struct.std::_Vector_base" = type { %"struct.std::_Vector_base<std::__cxx11::basic_string<char>, std::allocator<std::__cxx11::basic_string<char>>>::_Vector_impl" }
%"struct.std::_Vector_base<std::__cxx11::basic_string<char>, std::allocator<std::__cxx11::basic_string<char>>>::_Vector_impl" = type { %"struct.std::_Vector_base<std::__cxx11::basic_string<char>, std::allocator<std::__cxx11::basic_string<char>>>::_Vector_impl_data" }
%"struct.std::_Vector_base<std::__cxx11::basic_string<char>, std::allocator<std::__cxx11::basic_string<char>>>::_Vector_impl_data" = type { ptr, ptr, ptr }
%"class.Eigen::Matrix.30" = type { %"class.Eigen::PlainObjectBase.31" }
%"class.Eigen::PlainObjectBase.31" = type { %"class.Eigen::DenseStorage.38" }
%"class.Eigen::DenseStorage.38" = type { %"struct.Eigen::internal::plain_array.39" }
%"struct.Eigen::internal::plain_array.39" = type { [4 x float] }
%"class.igl::opengl::MeshGL" = type <{ i8, [3 x i8], i32, i32, i32, i32, i32, i32, i32, i32, i32, i32, i32, i32, i32, i32, i32, i32, i32, i32, i32, i32, i32, %"class.Eigen::Matrix.40", %"class.Eigen::Matrix.40", %"class.Eigen::Matrix.40", %"class.Eigen::Matrix.40", %"class.Eigen::Matrix.40", %"class.Eigen::Matrix.40", %"class.Eigen::Matrix.40", %"class.Eigen::Matrix.40", %"class.Eigen::Matrix.40", %"class.Eigen::Matrix.40", %"struct.igl::opengl::MeshGL::TextGL", %"struct.igl::opengl::MeshGL::TextGL", %"struct.igl::opengl::MeshGL::TextGL", i32, i32, i32, i32, i32, [4 x i8], %"class.Eigen::Matrix.58", %"class.Eigen::Matrix.49", %"class.Eigen::Matrix.49", %"class.Eigen::Matrix.49", i32, [4 x i8] }>
%"class.Eigen::Matrix.40" = type { %"class.Eigen::PlainObjectBase.41" }
%"class.Eigen::PlainObjectBase.41" = type { %"class.Eigen::DenseStorage.48" }
%"class.Eigen::DenseStorage.48" = type { ptr, i64, i64 }
%"struct.igl::opengl::MeshGL::TextGL" = type { i32, i32, i32, i32, i32, i32, %"class.Eigen::Matrix.40", %"class.Eigen::Matrix.40", %"class.Eigen::Matrix.40", %"class.Eigen::Matrix.49" }
%"class.Eigen::Matrix.58" = type { %"class.Eigen::PlainObjectBase.59" }
%"class.Eigen::PlainObjectBase.59" = type { %"class.Eigen::DenseStorage.66" }
%"class.Eigen::DenseStorage.66" = type { ptr, i64 }
%"class.Eigen::Matrix.49" = type { %"class.Eigen::PlainObjectBase.50" }
%"class.Eigen::PlainObjectBase.50" = type { %"class.Eigen::DenseStorage.57" }
%"class.Eigen::DenseStorage.57" = type { ptr, i64, i64 }

@_ZTISt9bad_alloc = external constant ptr
@_ZTVSt9bad_alloc = available_externally unnamed_addr constant { [5 x ptr] } { [5 x ptr] [ptr null, ptr @_ZTISt9bad_alloc, ptr @_ZNSt9bad_allocD1Ev, ptr @_ZNSt9bad_allocD0Ev, ptr @_ZNKSt9bad_alloc4whatEv] }, align 8
@_ZTVSt9exception = available_externally unnamed_addr constant { [5 x ptr] } { [5 x ptr] [ptr null, ptr @_ZTISt9exception, ptr @_ZNSt9exceptionD1Ev, ptr @_ZNSt9exceptionD0Ev, ptr @_ZNKSt9exception4whatEv] }, align 8

; Function Attrs: inlinehint mustprogress nounwind uwtable
define linkonce_odr dso_local void @_ZN5Eigen8internal28check_that_malloc_is_allowedEv() #6 comdat {
  ret void
}

; Function Attrs: inlinehint mustprogress uwtable
define linkonce_odr dso_local noundef ptr @_ZN5Eigen8internal14aligned_mallocEm(i64 noundef %0) #4 comdat {
  %2 = alloca i64, align 8
  %3 = alloca ptr, align 8
  store i64 %0, ptr %2, align 8, !tbaa !104
  call void @_ZN5Eigen8internal28check_that_malloc_is_allowedEv()
  call void @llvm.lifetime.start.p0(i64 8, ptr %3) #25
  %4 = load i64, ptr %2, align 8, !tbaa !104
  %5 = call noalias ptr @malloc(i64 noundef %4) #29
  store ptr %5, ptr %3, align 8, !tbaa !123
  %6 = load ptr, ptr %3, align 8, !tbaa !123
  %7 = icmp ne ptr %6, null
  br i1 %7, label %12, label %8

8:                                                ; preds = %1
  %9 = load i64, ptr %2, align 8, !tbaa !104
  %10 = icmp ne i64 %9, 0
  br i1 %10, label %11, label %12

11:                                               ; preds = %8
  call void @_ZN5Eigen8internal19throw_std_bad_allocEv()
  br label %12

12:                                               ; preds = %11, %8, %1
  %13 = load ptr, ptr %3, align 8, !tbaa !123
  call void @llvm.lifetime.end.p0(i64 8, ptr %3) #25
  ret ptr %13
}

; Function Attrs: inlinehint mustprogress nounwind uwtable
define linkonce_odr dso_local void @_ZN5Eigen8internal12aligned_freeEPv(ptr noundef %0) #6 comdat {
  %2 = alloca ptr, align 8
  store ptr %0, ptr %2, align 8, !tbaa !123
  %3 = load ptr, ptr %2, align 8, !tbaa !123
  call void @free(ptr noundef %3) #25
  ret void
}

; Function Attrs: mustprogress nounwind uwtable
define linkonce_odr dso_local void @_ZNSt9exceptionC2Ev(ptr noundef nonnull align 8 dereferenceable(8) %0) unnamed_addr #1 comdat align 2 {
  %2 = alloca ptr, align 8
  store ptr %0, ptr %2, align 8, !tbaa !430
  %3 = load ptr, ptr %2, align 8
  store ptr getelementptr inbounds inrange(-16, 24) ({ [5 x ptr] }, ptr @_ZTVSt9exception, i32 0, i32 0, i32 2), ptr %3, align 8, !tbaa !121
  ret void
}

; Function Attrs: inlinehint mustprogress uwtable
define linkonce_odr dso_local noundef ptr @_ZN5Eigen8internal26conditional_aligned_mallocILb1EEEPvm(i64 noundef %0) #4 comdat {
  %2 = alloca i64, align 8
  store i64 %0, ptr %2, align 8, !tbaa !104
  %3 = load i64, ptr %2, align 8, !tbaa !104
  %4 = call noundef ptr @_ZN5Eigen8internal14aligned_mallocEm(i64 noundef %3)
  ret ptr %4
}

; Function Attrs: alwaysinline mustprogress uwtable
define linkonce_odr dso_local void @_ZN5Eigen8internal23check_size_for_overflowIdEEvm(i64 noundef %0) #12 comdat {
  %2 = alloca i64, align 8
  store i64 %0, ptr %2, align 8, !tbaa !104
  %3 = load i64, ptr %2, align 8, !tbaa !104
  %4 = icmp ugt i64 %3, 2305843009213693951
  br i1 %4, label %5, label %6

5:                                                ; preds = %1
  call void @_ZN5Eigen8internal19throw_std_bad_allocEv()
  br label %6

6:                                                ; preds = %5, %1
  ret void
}

; Function Attrs: inlinehint mustprogress uwtable
define linkonce_odr dso_local void @_ZN5Eigen8internal24conditional_aligned_freeILb1EEEvPv(ptr noundef %0) #4 comdat {
  %2 = alloca ptr, align 8
  store ptr %0, ptr %2, align 8, !tbaa !123
  %3 = load ptr, ptr %2, align 8, !tbaa !123
  call void @_ZN5Eigen8internal12aligned_freeEPv(ptr noundef %3)
  ret void
}

; Function Attrs: mustprogress nounwind uwtable
define linkonce_odr dso_local void @_ZNSt9bad_allocC2Ev(ptr noundef nonnull align 8 dereferenceable(8) %0) unnamed_addr #1 comdat align 2 {
  %2 = alloca ptr, align 8
  store ptr %0, ptr %2, align 8, !tbaa !428
  %3 = load ptr, ptr %2, align 8
  call void @_ZNSt9exceptionC2Ev(ptr noundef nonnull align 8 dereferenceable(8) %3) #25
  store ptr getelementptr inbounds inrange(-16, 24) ({ [5 x ptr] }, ptr @_ZTVSt9bad_alloc, i32 0, i32 0, i32 2), ptr %3, align 8, !tbaa !121
  ret void
}

; Function Attrs: inlinehint mustprogress uwtable
define linkonce_odr dso_local noundef ptr @_ZN5Eigen8internal28conditional_aligned_new_autoIdLb1EEEPT_m(i64 noundef %0) #4 comdat {
  %2 = alloca ptr, align 8
  %3 = alloca i64, align 8
  %4 = alloca ptr, align 8
  store i64 %0, ptr %3, align 8, !tbaa !104
  %5 = load i64, ptr %3, align 8, !tbaa !104
  %6 = icmp eq i64 %5, 0
  br i1 %6, label %7, label %8

7:                                                ; preds = %1
  store ptr null, ptr %2, align 8
  br label %14

8:                                                ; preds = %1
  %9 = load i64, ptr %3, align 8, !tbaa !104
  call void @_ZN5Eigen8internal23check_size_for_overflowIdEEvm(i64 noundef %9)
  call void @llvm.lifetime.start.p0(i64 8, ptr %4) #25
  %10 = load i64, ptr %3, align 8, !tbaa !104
  %11 = mul i64 8, %10
  %12 = call noundef ptr @_ZN5Eigen8internal26conditional_aligned_mallocILb1EEEPvm(i64 noundef %11)
  store ptr %12, ptr %4, align 8, !tbaa !113
  %13 = load ptr, ptr %4, align 8, !tbaa !113
  store ptr %13, ptr %2, align 8
  call void @llvm.lifetime.end.p0(i64 8, ptr %4) #25
  br label %14

14:                                               ; preds = %8, %7
  %15 = load ptr, ptr %2, align 8
  ret ptr %15
}

; Function Attrs: inlinehint mustprogress uwtable
define linkonce_odr dso_local void @_ZN5Eigen8internal31conditional_aligned_delete_autoIdLb1EEEvPT_m(ptr noundef %0, i64 noundef %1) #4 comdat {
  %3 = alloca ptr, align 8
  %4 = alloca i64, align 8
  store ptr %0, ptr %3, align 8, !tbaa !113
  store i64 %1, ptr %4, align 8, !tbaa !104
  %5 = load ptr, ptr %3, align 8, !tbaa !113
  call void @_ZN5Eigen8internal24conditional_aligned_freeILb1EEEvPv(ptr noundef %5)
  ret void
}

; Function Attrs: inlinehint mustprogress uwtable
define linkonce_odr dso_local void @_ZN5Eigen8internal19throw_std_bad_allocEv() #4 comdat {
  %1 = call ptr @__cxa_allocate_exception(i64 8) #25
  call void @_ZNSt9bad_allocC2Ev(ptr noundef nonnull align 8 dereferenceable(8) %1) #25
  call void @__cxa_throw(ptr %1, ptr @_ZTISt9bad_alloc, ptr @_ZNSt9bad_allocD1Ev) #27
  unreachable
}

; Function Attrs: mustprogress uwtable
define linkonce_odr dso_local void @_ZN5Eigen12DenseStorageIdLin1ELin1ELin1ELi0EE6resizeElll(ptr noundef nonnull align 8 dereferenceable(24) %0, i64 noundef %1, i64 noundef %2, i64 noundef %3) #3 comdat align 2 {
  %5 = alloca ptr, align 8
  %6 = alloca i64, align 8
  %7 = alloca i64, align 8
  %8 = alloca i64, align 8
  store ptr %0, ptr %5, align 8, !tbaa !374
  store i64 %1, ptr %6, align 8, !tbaa !104
  store i64 %2, ptr %7, align 8, !tbaa !104
  store i64 %3, ptr %8, align 8, !tbaa !104
  %9 = load ptr, ptr %5, align 8
  %10 = load i64, ptr %6, align 8, !tbaa !104
  %11 = getelementptr inbounds nuw %"class.Eigen::DenseStorage.11", ptr %9, i32 0, i32 1
  %12 = load i64, ptr %11, align 8, !tbaa !377
  %13 = getelementptr inbounds nuw %"class.Eigen::DenseStorage.11", ptr %9, i32 0, i32 2
  %14 = load i64, ptr %13, align 8, !tbaa !378
  %15 = mul nsw i64 %12, %14
  %16 = icmp ne i64 %10, %15
  br i1 %16, label %17, label %34

17:                                               ; preds = %4
  %18 = getelementptr inbounds nuw %"class.Eigen::DenseStorage.11", ptr %9, i32 0, i32 0
  %19 = load ptr, ptr %18, align 8, !tbaa !376
  %20 = getelementptr inbounds nuw %"class.Eigen::DenseStorage.11", ptr %9, i32 0, i32 1
  %21 = load i64, ptr %20, align 8, !tbaa !377
  %22 = getelementptr inbounds nuw %"class.Eigen::DenseStorage.11", ptr %9, i32 0, i32 2
  %23 = load i64, ptr %22, align 8, !tbaa !378
  %24 = mul nsw i64 %21, %23
  call void @_ZN5Eigen8internal31conditional_aligned_delete_autoIdLb1EEEvPT_m(ptr noundef %19, i64 noundef %24)
  %25 = load i64, ptr %6, align 8, !tbaa !104
  %26 = icmp sgt i64 %25, 0
  br i1 %26, label %27, label %31

27:                                               ; preds = %17
  %28 = load i64, ptr %6, align 8, !tbaa !104
  %29 = call noundef ptr @_ZN5Eigen8internal28conditional_aligned_new_autoIdLb1EEEPT_m(i64 noundef %28)
  %30 = getelementptr inbounds nuw %"class.Eigen::DenseStorage.11", ptr %9, i32 0, i32 0
  store ptr %29, ptr %30, align 8, !tbaa !376
  br label %33

31:                                               ; preds = %17
  %32 = getelementptr inbounds nuw %"class.Eigen::DenseStorage.11", ptr %9, i32 0, i32 0
  store ptr null, ptr %32, align 8, !tbaa !376
  br label %33

33:                                               ; preds = %31, %27
  br label %34

34:                                               ; preds = %33, %4
  %35 = load i64, ptr %7, align 8, !tbaa !104
  %36 = getelementptr inbounds nuw %"class.Eigen::DenseStorage.11", ptr %9, i32 0, i32 1
  store i64 %35, ptr %36, align 8, !tbaa !377
  %37 = load i64, ptr %8, align 8, !tbaa !104
  %38 = getelementptr inbounds nuw %"class.Eigen::DenseStorage.11", ptr %9, i32 0, i32 2
  store i64 %37, ptr %38, align 8, !tbaa !378
  ret void
}

; Function Attrs: alwaysinline mustprogress uwtable
define linkonce_odr dso_local void @_ZN5Eigen8internal28check_rows_cols_for_overflowILin1EE3runIlEEvT_S4_(i64 noundef %0, i64 noundef %1) #12 comdat align 2 {
  %3 = alloca i64, align 8
  %4 = alloca i64, align 8
  %5 = alloca i64, align 8
  %6 = alloca i8, align 1
  store i64 %0, ptr %3, align 8, !tbaa !104
  store i64 %1, ptr %4, align 8, !tbaa !104
  call void @llvm.lifetime.start.p0(i64 8, ptr %5) #25
  store i64 9223372036854775807, ptr %5, align 8, !tbaa !104
  call void @llvm.lifetime.start.p0(i64 1, ptr %6) #25
  %7 = load i64, ptr %3, align 8, !tbaa !104
  %8 = icmp eq i64 %7, 0
  br i1 %8, label %12, label %9

9:                                                ; preds = %2
  %10 = load i64, ptr %4, align 8, !tbaa !104
  %11 = icmp eq i64 %10, 0
  br i1 %11, label %12, label %13

12:                                               ; preds = %9, %2
  br label %19

13:                                               ; preds = %9
  %14 = load i64, ptr %3, align 8, !tbaa !104
  %15 = load i64, ptr %5, align 8, !tbaa !104
  %16 = load i64, ptr %4, align 8, !tbaa !104
  %17 = sdiv i64 %15, %16
  %18 = icmp sgt i64 %14, %17
  br label %19

19:                                               ; preds = %13, %12
  %20 = phi i1 [ false, %12 ], [ %18, %13 ]
  %21 = zext i1 %20 to i8
  store i8 %21, ptr %6, align 1, !tbaa !99
  %22 = load i8, ptr %6, align 1, !tbaa !99, !range !100, !noundef !101
  %23 = trunc i8 %22 to i1
  br i1 %23, label %24, label %25

24:                                               ; preds = %19
  call void @_ZN5Eigen8internal19throw_std_bad_allocEv()
  br label %25

25:                                               ; preds = %24, %19
  call void @llvm.lifetime.end.p0(i64 1, ptr %6) #25
  call void @llvm.lifetime.end.p0(i64 8, ptr %5) #25
  ret void
}

; Function Attrs: inlinehint mustprogress uwtable
define linkonce_odr dso_local void @_ZN5Eigen15PlainObjectBaseINS_6MatrixIdLin1ELin1ELi0ELin1ELin1EEEE6resizeEll(ptr noundef nonnull align 8 dereferenceable(24) %0, i64 noundef %1, i64 noundef %2) #4 comdat align 2 {
  %4 = alloca ptr, align 8
  %5 = alloca i64, align 8
  %6 = alloca i64, align 8
  store ptr %0, ptr %4, align 8, !tbaa !93
  store i64 %1, ptr %5, align 8, !tbaa !104
  store i64 %2, ptr %6, align 8, !tbaa !104
  %7 = load ptr, ptr %4, align 8
  %8 = load i64, ptr %5, align 8, !tbaa !104
  %9 = load i64, ptr %6, align 8, !tbaa !104
  call void @_ZN5Eigen8internal28check_rows_cols_for_overflowILin1EE3runIlEEvT_S4_(i64 noundef %8, i64 noundef %9)
  %10 = getelementptr inbounds nuw %"class.Eigen::PlainObjectBase.4", ptr %7, i32 0, i32 0
  %11 = load i64, ptr %5, align 8, !tbaa !104
  %12 = load i64, ptr %6, align 8, !tbaa !104
  %13 = mul nsw i64 %11, %12
  %14 = load i64, ptr %5, align 8, !tbaa !104
  %15 = load i64, ptr %6, align 8, !tbaa !104
  call void @_ZN5Eigen12DenseStorageIdLin1ELin1ELin1ELi0EE6resizeElll(ptr noundef nonnull align 8 dereferenceable(24) %10, i64 noundef %13, i64 noundef %14, i64 noundef %15)
  ret void
}

; Function Attrs: mustprogress uwtable
define dso_local void @_ZN3igl6opengl10ViewerData10set_pointsERKN5Eigen6MatrixIdLin1ELin1ELi0ELin1ELin1EEES6_(ptr noundef nonnull align 8 dereferenceable(1488) %0, ptr noundef nonnull align 8 dereferenceable(24) %1, ptr noundef nonnull align 8 dereferenceable(24) %2) #3 align 2 {
  %4 = alloca ptr, align 8
  %5 = alloca ptr, align 8
  %6 = alloca ptr, align 8
  store ptr %0, ptr %4, align 8, !tbaa !21
  store ptr %1, ptr %5, align 8, !tbaa !78
  store ptr %2, ptr %6, align 8, !tbaa !78
  %7 = load ptr, ptr %4, align 8
  %8 = getelementptr inbounds nuw %"class.igl::opengl::ViewerData", ptr %7, i32 0, i32 17
  call void @_ZN5Eigen15PlainObjectBaseINS_6MatrixIdLin1ELin1ELi0ELin1ELin1EEEE6resizeEll(ptr noundef nonnull align 8 dereferenceable(24) %8, i64 noundef 0, i64 noundef 0)
  %9 = load ptr, ptr %5, align 8, !tbaa !78
  %10 = load ptr, ptr %6, align 8, !tbaa !78
  call void @_ZN3igl6opengl10ViewerData10add_pointsERKN5Eigen6MatrixIdLin1ELin1ELi0ELin1ELin1EEES6_(ptr noundef nonnull align 8 dereferenceable(1488) %7, ptr noundef nonnull align 8 dereferenceable(24) %9, ptr noundef nonnull align 8 dereferenceable(24) %10)
  ret void
}