; Function Attrs: mustprogress uwtable
define dso_local void @_ZN3igl6opengl10ViewerData10set_pointsERKN5Eigen6MatrixIdLin1ELin1ELi0ELin1ELin1EEES6_(ptr noundef nonnull align 8 dereferenceable(1488) %0, ptr noundef nonnull readonly align 8 captures(none) dereferenceable(24) %1, ptr noundef nonnull readonly align 8 captures(none) dereferenceable(24) %2) local_unnamed_addr #1 align 2 {
  %4 = getelementptr inbounds nuw i8, ptr %0, i64 416
  %5 = load i64, ptr %4, align 8, !tbaa !80
  %6 = getelementptr inbounds nuw i8, ptr %0, i64 424
  %7 = load i64, ptr %6, align 8, !tbaa !79
  %8 = mul nsw i64 %7, %5
  %.not.i = icmp eq i64 %8, 0
  br i1 %.not.i, label %_ZN5Eigen12DenseStorageIdLin1ELin1ELin1ELi0EE6resizeElll.exit, label %9

9:                                                ; preds = %3
  %10 = getelementptr inbounds nuw i8, ptr %0, i64 408
  %11 = load ptr, ptr %10, align 8, !tbaa !61
  tail call void @free(ptr noundef %11) #26
  store ptr null, ptr %10, align 8, !tbaa !61
  br label %_ZN5Eigen12DenseStorageIdLin1ELin1ELin1ELi0EE6resizeElll.exit

_ZN5Eigen12DenseStorageIdLin1ELin1ELin1ELi0EE6resizeElll.exit: ; preds = %3, %9
  tail call void @llvm.memset.p0.i64(ptr noundef nonnull align 8 dereferenceable(16) %4, i8 0, i64 16, i1 false)
  tail call void @_ZN3igl6opengl10ViewerData10add_pointsERKN5Eigen6MatrixIdLin1ELin1ELi0ELin1ELin1EEES6_(ptr noundef nonnull align 8 dereferenceable(1488) %0, ptr noundef nonnull align 8 dereferenceable(24) %1, ptr noundef nonnull align 8 dereferenceable(24) %2)
  ret void
}